X.509 Certificate Information:
	Version: 3
	Serial Number (hex): 01
	Issuer: CN=TLS Pool Test X.509 Server,OU=Test Servers,O=ARPA2 Laboratories,L=Internet,ST=Freedom
	Validity:
		Not Before: Wed Apr 06 13:21:11 UTC 2016
		Not After: Wed Jun 15 13:21:11 UTC 2016
	Subject: CN=TLS Pool Test X.509 Server,OU=Test Servers,O=ARPA2 Laboratories,L=Internet,ST=Freedom
	Subject Public Key Algorithm: RSA
	Algorithm Security Level: Legacy (2000 bits)
		Modulus (bits 2000):
			00:a8:09:e9:3c:05:0c:88:1c:5e:c3:81:aa:27:9b:e6
			40:67:a8:cb:a9:43:3e:65:ad:56:7c:e5:91:ea:0f:8a
			9d:06:5c:24:cf:cd:ea:c6:66:79:44:46:b4:41:9d:db
			5e:26:48:b6:4b:25:17:cf:44:b6:3e:19:e5:35:6c:b6
			97:43:f9:4a:84:7a:fd:b3:5a:17:1e:c7:fe:73:63:a5
			d4:73:6e:dc:1b:d8:3a:9d:20:24:1e:42:f8:87:62:cb
			11:34:62:6f:1f:00:a2:64:ff:00:fc:09:3d:5d:66:16
			11:77:0f:65:d4:2b:2e:c3:8b:00:89:d1:61:07:81:d2
			5d:f7:fe:e8:af:40:de:1a:50:c9:9b:81:6c:ba:d7:09
			5b:45:f6:54:ca:b9:10:d2:42:1b:e6:67:4d:66:3b:2e
			ae:ad:78:32:08:7a:f6:af:9c:73:90:bb:0e:a4:d4:b1
			67:0a:ee:11:a0:dd:a5:56:58:c8:f9:75:cc:6a:03:b6
			aa:f1:5c:b2:3e:61:ad:ec:6a:cb:52:06:88:81:f3:d0
			ed:79:74:94:e9:c4:80:a6:d1:36:1b:25:bc:35:da:bb
			02:21:14:b4:68:f9:36:a5:e9:d5:28:7c:5c:50:c5:1f
			bb:bf:e8:4a:b3:1c:37:43:2f:39:27
		Exponent (bits 24):
			01:00:01
	Extensions:
		Basic Constraints (critical):
			Certificate Authority (CA): FALSE
		Subject Alternative Name (not critical):
			DNSname: tlspool.arpa2.lab
			DNSname: localhost
		Key Purpose (not critical):
			TLS WWW Server.
		Key Usage (critical):
			Digital signature.
			Key encipherment.
		Subject Key Identifier (not critical):
			d877dae905b849b5e94c4e2867e5685eb502f2a0
	Signature Algorithm: RSA-SHA256
	Signature:
		89:b4:41:4f:4a:62:a7:26:fc:1c:f6:e9:0c:12:26:fa
		6f:e0:55:4c:8e:a7:74:c7:13:07:7a:69:b9:bb:a3:0b
		56:bb:a4:7c:b8:40:ba:fa:73:28:bf:ce:95:ad:d4:ff
		4e:eb:0c:49:5a:c0:e0:83:61:2b:75:a2:90:11:6a:81
		c4:f2:51:99:dc:43:e3:40:c0:0a:4b:33:41:e0:d4:e9
		1a:d9:91:4b:8b:aa:01:d9:cb:fe:43:ef:31:c1:b1:c2
		e2:e1:28:6b:92:37:1c:41:c0:c5:bb:2c:a6:62:93:f8
		c4:41:4a:07:1c:42:94:87:cb:8d:fd:d2:92:ca:97:24
		bd:f5:79:02:63:2a:1e:a3:84:25:b5:8a:62:72:bb:04
		2f:93:74:ce:0a:20:10:c1:1d:6a:71:0f:95:3e:a0:2b
		1c:c7:c6:e3:ab:a2:6e:a0:79:07:f1:ae:cf:96:e4:2f
		1d:7f:5c:59:ae:f9:10:81:91:88:9b:55:8a:73:f0:07
		20:ee:22:ab:9d:0e:65:63:7e:64:de:44:58:b9:4f:31
		9f:11:13:9c:98:6a:98:89:40:64:df:96:a7:80:0f:c7
		56:e2:a4:fe:83:30:87:48:83:6f:90:17:73:c4:02:45
		82:76:5e:97:6c:57:ba:66:b8:44
Other Information:
	SHA1 fingerprint:
		3a871c3567a5cc044e57465cf4f81f5aea474870
	SHA256 fingerprint:
		56305e010f86588438dc7510939fac30d8952b806cc5fa82fd06f7d46bde8cfc
	Public Key ID:
		d877dae905b849b5e94c4e2867e5685eb502f2a0
	Public key's random art:
		+--[ RSA 2000]----+
		|                 |
		|                 |
		|        o . o .  |
		|       + + O + . |
		|      E S @ @ .  |
		|         O & +   |
		|          = * .  |
		|           . .   |
		|            .    |
		+-----------------+

-----BEGIN CERTIFICATE-----
MIID5zCCAtagAwIBAgIBATANBgkqhkiG9w0BAQsFADB+MSMwIQYDVQQDExpUTFMg
UG9vbCBUZXN0IFguNTA5IFNlcnZlcjEVMBMGA1UECxMMVGVzdCBTZXJ2ZXJzMRsw
GQYDVQQKExJBUlBBMiBMYWJvcmF0b3JpZXMxETAPBgNVBAcTCEludGVybmV0MRAw
DgYDVQQIEwdGcmVlZG9tMB4XDTE2MDQwNjEzMjExMVoXDTE2MDYxNTEzMjExMVow
fjEjMCEGA1UEAxMaVExTIFBvb2wgVGVzdCBYLjUwOSBTZXJ2ZXIxFTATBgNVBAsT
DFRlc3QgU2VydmVyczEbMBkGA1UEChMSQVJQQTIgTGFib3JhdG9yaWVzMREwDwYD
VQQHEwhJbnRlcm5ldDEQMA4GA1UECBMHRnJlZWRvbTCCARswDQYJKoZIhvcNAQEB
BQADggEIADCCAQMCgfsAqAnpPAUMiBxew4GqJ5vmQGeoy6lDPmWtVnzlkeoPip0G
XCTPzerGZnlERrRBndteJki2SyUXz0S2PhnlNWy2l0P5SoR6/bNaFx7H/nNjpdRz
btwb2DqdICQeQviHYssRNGJvHwCiZP8A/Ak9XWYWEXcPZdQrLsOLAInRYQeB0l33
/uivQN4aUMmbgWy61wlbRfZUyrkQ0kIb5mdNZjsurq14Mgh69q+cc5C7DqTUsWcK
7hGg3aVWWMj5dcxqA7aq8VyyPmGt7GrLUgaIgfPQ7Xl0lOnEgKbRNhslvDXauwIh
FLRo+Tal6dUofFxQxR+7v+hKsxw3Qy85JwIDAQABo34wfDAMBgNVHRMBAf8EAjAA
MCcGA1UdEQQgMB6CEXRsc3Bvb2wuYXJwYTIubGFigglsb2NhbGhvc3QwEwYDVR0l
BAwwCgYIKwYBBQUHAwEwDwYDVR0PAQH/BAUDAwegADAdBgNVHQ4EFgQU2Hfa6QW4
SbXpTE4oZ+VoXrUC8qAwDQYJKoZIhvcNAQELBQADgfsAibRBT0pipyb8HPbpDBIm
+m/gVUyOp3THEwd6abm7owtWu6R8uEC6+nMov86VrdT/TusMSVrA4INhK3WikBFq
gcTyUZncQ+NAwApLM0Hg1Oka2ZFLi6oB2cv+Q+8xwbHC4uEoa5I3HEHAxbsspmKT
+MRBSgccQpSHy4390pLKlyS99XkCYyoeo4QltYpicrsEL5N0zgogEMEdanEPlT6g
KxzHxuOrom6geQfxrs+W5C8df1xZrvkQgZGIm1WKc/AHIO4iq50OZWN+ZN5EWLlP
MZ8RE5yYapiJQGTflqeAD8dW4qT+gzCHSINvkBdzxAJFgnZel2xXuma4RA==
-----END CERTIFICATE-----
