X.509 Certificate Information:
	Version: 3
	Serial Number (hex): 01
	Issuer: CN=TLS Pool Test X.509 Client,OU=Test Clients,O=ARPA2 Laboratories,L=Internet,ST=Freedom
	Validity:
		Not Before: Wed Apr 06 13:21:11 UTC 2016
		Not After: Wed Jun 15 13:21:11 UTC 2016
	Subject: CN=TLS Pool Test X.509 Client,OU=Test Clients,O=ARPA2 Laboratories,L=Internet,ST=Freedom
	Subject Public Key Algorithm: RSA
	Algorithm Security Level: Legacy (2000 bits)
		Modulus (bits 2000):
			00:b9:c3:dc:fc:d1:b7:ce:93:f1:bc:c7:6b:40:c7:90
			35:93:ea:8e:46:8c:cc:b5:20:9d:6e:fe:c7:1a:4f:a1
			9d:a2:ff:a2:4a:61:31:44:c3:67:6a:1d:a4:29:9e:cf
			95:20:98:b1:6d:59:f4:e7:fc:b1:34:7e:39:8c:87:b4
			5c:cd:01:a3:3e:7c:c9:22:b7:17:d1:fd:2e:6b:db:8c
			96:20:f5:4d:46:a7:1d:51:c1:0f:a9:ef:43:8c:a8:6b
			57:bd:35:52:56:bb:f3:46:0e:50:f5:c3:ad:71:bc:85
			0d:eb:0a:c6:2b:4d:84:78:15:8d:b8:99:6a:6a:c4:49
			49:f1:ad:08:27:43:5b:c3:69:c6:34:5b:51:05:a6:f9
			5b:73:43:54:87:87:a7:c1:e8:75:19:8d:64:ff:a8:b1
			cf:a3:17:89:7d:51:68:11:6d:67:eb:e8:eb:13:61:d6
			43:b8:0c:45:a9:8f:e2:97:87:25:72:b5:43:92:e5:ce
			d2:04:23:11:4e:d9:f0:25:d4:7e:d3:0c:bf:73:b1:cf
			51:3d:b1:cf:c3:b5:d5:86:c9:2d:c1:98:db:2c:9c:af
			8a:f2:80:d0:b9:cb:7a:fb:57:a4:b8:e9:2a:05:2e:b0
			a6:a7:3e:eb:75:a6:5c:c0:89:c3:17
		Exponent (bits 24):
			01:00:01
	Extensions:
		Basic Constraints (critical):
			Certificate Authority (CA): FALSE
		Subject Alternative Name (not critical):
			RFC822Name: testcli@tlspool.arpa2.lab
		Key Usage (critical):
			Digital signature.
			Key encipherment.
		Subject Key Identifier (not critical):
			1e81dd2f5b01f1156a57ba448a3dec2d7db5bb6e
	Signature Algorithm: RSA-SHA256
	Signature:
		16:e1:e4:51:0a:4f:0f:21:a3:ea:59:23:09:24:da:fc
		bb:1a:df:bd:af:92:8a:69:9d:b4:06:63:5e:d6:32:2a
		d1:5c:71:3a:b2:3e:61:19:e9:cd:cb:3d:33:c8:11:b9
		06:f5:6b:2b:52:54:cd:08:22:79:a1:88:67:e8:7b:39
		74:58:bd:7a:44:54:1c:35:fe:dd:69:d1:ad:0e:1e:81
		59:88:f3:de:07:eb:45:a1:ab:65:93:49:6a:bd:17:26
		7d:73:78:78:c8:08:d2:94:43:e7:f3:e9:07:45:e2:4b
		9d:19:43:99:84:8e:23:96:59:1a:99:3c:c1:a6:2f:78
		3c:27:ca:dd:e0:dd:31:5f:a3:95:67:6a:6d:7c:06:38
		08:77:45:e6:04:7d:16:cf:b6:aa:e0:4d:af:c9:0a:3c
		17:a6:83:66:ab:d8:4a:c3:59:7f:a9:8c:2a:46:15:b7
		fd:ea:26:c2:77:30:67:15:4d:9c:e3:51:16:18:c3:e7
		67:17:ac:1b:ea:4d:41:70:81:53:68:38:b3:01:84:5f
		b9:ab:6a:3c:28:e4:df:c3:dd:3d:b9:93:a8:d5:60:fe
		30:17:97:45:d3:c1:e6:5a:4e:0e:a9:0a:ad:02:9c:5a
		b6:32:bc:05:1b:c5:b6:58:13:92
Other Information:
	SHA1 fingerprint:
		4ea210f7a01cdc5c33e34690b0b1d7f59da3323c
	SHA256 fingerprint:
		f3035208d8dee6a4adaca67b9eabcb59a75f0b7f2d642ffb5d9cb48a8a57dc5c
	Public Key ID:
		1e81dd2f5b01f1156a57ba448a3dec2d7db5bb6e
	Public key's random art:
		+--[ RSA 2000]----+
		|          o.  +..|
		|       o . * = o |
		|      . o o X + .|
		|         . + B .o|
		|        S . = +..|
		|       . . + . ..|
		|        . .    . |
		|               E.|
		|              oo |
		+-----------------+

-----BEGIN CERTIFICATE-----
MIIDzzCCAr6gAwIBAgIBATANBgkqhkiG9w0BAQsFADB+MSMwIQYDVQQDExpUTFMg
UG9vbCBUZXN0IFguNTA5IENsaWVudDEVMBMGA1UECxMMVGVzdCBDbGllbnRzMRsw
GQYDVQQKExJBUlBBMiBMYWJvcmF0b3JpZXMxETAPBgNVBAcTCEludGVybmV0MRAw
DgYDVQQIEwdGcmVlZG9tMB4XDTE2MDQwNjEzMjExMVoXDTE2MDYxNTEzMjExMVow
fjEjMCEGA1UEAxMaVExTIFBvb2wgVGVzdCBYLjUwOSBDbGllbnQxFTATBgNVBAsT
DFRlc3QgQ2xpZW50czEbMBkGA1UEChMSQVJQQTIgTGFib3JhdG9yaWVzMREwDwYD
VQQHEwhJbnRlcm5ldDEQMA4GA1UECBMHRnJlZWRvbTCCARswDQYJKoZIhvcNAQEB
BQADggEIADCCAQMCgfsAucPc/NG3zpPxvMdrQMeQNZPqjkaMzLUgnW7+xxpPoZ2i
/6JKYTFEw2dqHaQpns+VIJixbVn05/yxNH45jIe0XM0Boz58ySK3F9H9LmvbjJYg
9U1Gpx1RwQ+p70OMqGtXvTVSVrvzRg5Q9cOtcbyFDesKxitNhHgVjbiZamrESUnx
rQgnQ1vDacY0W1EFpvlbc0NUh4enweh1GY1k/6ixz6MXiX1RaBFtZ+vo6xNh1kO4
DEWpj+KXhyVytUOS5c7SBCMRTtnwJdR+0wy/c7HPUT2xz8O11YbJLcGY2yycr4ry
gNC5y3r7V6S46SoFLrCmpz7rdaZcwInDFwIDAQABo2YwZDAMBgNVHRMBAf8EAjAA
MCQGA1UdEQQdMBuBGXRlc3RjbGlAdGxzcG9vbC5hcnBhMi5sYWIwDwYDVR0PAQH/
BAUDAwegADAdBgNVHQ4EFgQUHoHdL1sB8RVqV7pEij3sLX21u24wDQYJKoZIhvcN
AQELBQADgfsAFuHkUQpPDyGj6lkjCSTa/Lsa372vkoppnbQGY17WMirRXHE6sj5h
GenNyz0zyBG5BvVrK1JUzQgieaGIZ+h7OXRYvXpEVBw1/t1p0a0OHoFZiPPeB+tF
oatlk0lqvRcmfXN4eMgI0pRD5/PpB0XiS50ZQ5mEjiOWWRqZPMGmL3g8J8rd4N0x
X6OVZ2ptfAY4CHdF5gR9Fs+2quBNr8kKPBemg2ar2ErDWX+pjCpGFbf96ibCdzBn
FU2c41EWGMPnZxesG+pNQXCBU2g4swGEX7mrajwo5N/D3T25k6jVYP4wF5dF08Hm
Wk4OqQqtApxatjK8BRvFtlgTkg==
-----END CERTIFICATE-----
