X.509 Certificate Information:
	Version: 3
	Serial Number (hex): 06
	Issuer: CN=TLS Pool Test Flying Signer,OU=On-the-fly Signing CA Certificate,O=ARPA2 Laboratories,L=Internet,ST=Freedom
	Validity:
		Not Before: Wed Apr 06 13:21:11 UTC 2016
		Not After: Wed Mar 07 13:21:11 UTC 2018
	Subject: CN=TLS Pool Test Flying Signer,OU=On-the-fly Signing CA Certificate,O=ARPA2 Laboratories,L=Internet,ST=Freedom
	Subject Public Key Algorithm: RSA
	Algorithm Security Level: Legacy (2000 bits)
		Modulus (bits 2000):
			00:e5:6e:9d:02:4e:02:82:b6:03:80:5e:ea:f5:bf:b9
			20:61:ae:66:76:ca:d0:78:e0:44:bf:a3:aa:4c:4d:e0
			e9:37:3b:04:a9:32:39:51:57:24:48:ab:78:bd:6d:6a
			2b:78:c5:3e:a5:d6:14:d5:f2:54:a7:b4:a3:22:61:8b
			8c:9e:7a:f4:0c:d4:5e:1c:eb:45:48:b1:17:bd:1a:36
			12:15:2f:47:74:29:79:dd:59:46:1b:0b:37:9f:ef:19
			75:2a:b1:6c:55:37:59:ed:96:28:f2:28:f2:c4:92:0c
			ba:bc:6c:db:85:ae:6a:91:21:66:02:10:62:45:b9:e9
			1b:83:8b:58:d7:4f:d5:29:bf:94:27:68:7c:ff:a1:6d
			2c:ba:be:c9:9d:d5:20:86:1d:90:d8:74:f5:66:3e:04
			a4:a3:e5:25:f9:ab:50:e8:76:57:50:49:ea:2f:10:ef
			0a:ef:2c:81:33:0d:ff:a7:de:69:70:33:7d:1f:3d:13
			fb:57:02:9a:e3:98:bb:57:34:85:7c:ba:cc:9a:2d:16
			94:5b:fe:63:4f:bf:c4:37:08:f6:ff:b8:ef:b1:95:d2
			ea:c1:ba:d9:bf:2c:a2:ef:c1:42:aa:65:ef:56:77:1b
			fa:d5:27:85:41:bd:65:42:5f:0e:c9
		Exponent (bits 24):
			01:00:01
	Extensions:
		Basic Constraints (critical):
			Certificate Authority (CA): TRUE
		Subject Alternative Name (not critical):
			RFC822Name: flying-signer@@tlspool.arpa2.lab
		Key Usage (critical):
			Certificate signing.
		Subject Key Identifier (not critical):
			d7bc53600476075194e3b2bf5b891287dca2d052
	Signature Algorithm: RSA-SHA256
	Signature:
		26:cf:95:4f:2c:75:82:26:c1:0c:03:fd:40:76:85:dc
		b6:bf:b5:41:8a:9f:de:24:9e:27:cf:fd:9d:84:44:e7
		b0:d8:3a:a1:1f:b7:3a:77:25:56:45:55:5e:e9:3e:91
		62:75:bb:31:d8:09:ae:af:e3:6b:29:2a:83:d7:3e:ad
		85:d2:38:a5:d3:31:25:57:02:8f:5d:fa:29:69:82:b6
		45:da:24:82:59:78:85:9d:bb:41:fd:97:6f:56:9e:f7
		9d:07:8f:4a:66:c2:00:f8:3a:f2:93:45:7f:81:80:41
		06:61:7b:a0:09:77:e7:0a:b8:cb:30:c7:18:bb:9f:48
		5d:9b:c4:8c:4d:5b:e4:e0:e7:49:d9:11:0b:5a:6f:c1
		7e:4e:4f:12:57:44:e2:b7:3f:e9:91:3e:01:12:ec:31
		2d:a8:3a:c3:05:88:09:8e:f5:d2:d5:22:ed:a8:4a:41
		6c:95:d9:5d:f1:b2:e0:45:7b:10:be:36:e9:d9:c8:2a
		41:58:e4:fb:79:95:23:71:e4:fa:ec:81:a3:51:b7:d4
		d6:98:38:16:0c:6b:b3:eb:47:6d:a9:32:48:d5:ca:f3
		bb:07:82:ff:da:16:51:28:a1:58:a8:12:21:e1:c5:31
		c4:2b:9a:a3:ae:0d:c9:9c:bc:d6
Other Information:
	SHA1 fingerprint:
		8549f802c3e18b7d5e9e8d78d6725a1e6037336d
	SHA256 fingerprint:
		14c328253c8edb9d9beb75fe802612632aab7a415654de93d4dcad4e6222803b
	Public Key ID:
		d7bc53600476075194e3b2bf5b891287dca2d052
	Public key's random art:
		+--[ RSA 2000]----+
		|          o.==+. |
		|         . o .o  |
		|         E  o. . |
		|        o .++..  |
		|       oS..=o=.  |
		|        o.. =o. .|
		|         . .oo ..|
		|            .... |
		|              oo |
		+-----------------+

-----BEGIN CERTIFICATE-----
MIIEBzCCAvagAwIBAgIBBjANBgkqhkiG9w0BAQsFADCBlDEkMCIGA1UEAxMbVExT
IFBvb2wgVGVzdCBGbHlpbmcgU2lnbmVyMSowKAYDVQQLEyFPbi10aGUtZmx5IFNp
Z25pbmcgQ0EgQ2VydGlmaWNhdGUxGzAZBgNVBAoTEkFSUEEyIExhYm9yYXRvcmll
czERMA8GA1UEBxMISW50ZXJuZXQxEDAOBgNVBAgTB0ZyZWVkb20wHhcNMTYwNDA2
MTMyMTExWhcNMTgwMzA3MTMyMTExWjCBlDEkMCIGA1UEAxMbVExTIFBvb2wgVGVz
dCBGbHlpbmcgU2lnbmVyMSowKAYDVQQLEyFPbi10aGUtZmx5IFNpZ25pbmcgQ0Eg
Q2VydGlmaWNhdGUxGzAZBgNVBAoTEkFSUEEyIExhYm9yYXRvcmllczERMA8GA1UE
BxMISW50ZXJuZXQxEDAOBgNVBAgTB0ZyZWVkb20wggEbMA0GCSqGSIb3DQEBAQUA
A4IBCAAwggEDAoH7AOVunQJOAoK2A4Be6vW/uSBhrmZ2ytB44ES/o6pMTeDpNzsE
qTI5UVckSKt4vW1qK3jFPqXWFNXyVKe0oyJhi4yeevQM1F4c60VIsRe9GjYSFS9H
dCl53VlGGws3n+8ZdSqxbFU3We2WKPIo8sSSDLq8bNuFrmqRIWYCEGJFuekbg4tY
10/VKb+UJ2h8/6FtLLq+yZ3VIIYdkNh09WY+BKSj5SX5q1DodldQSeovEO8K7yyB
Mw3/p95pcDN9Hz0T+1cCmuOYu1c0hXy6zJotFpRb/mNPv8Q3CPb/uO+xldLqwbrZ
vyyi78FCqmXvVncb+tUnhUG9ZUJfDskCAwEAAaNwMG4wDwYDVR0TAQH/BAUwAwEB
/zArBgNVHREEJDAigSBmbHlpbmctc2lnbmVyQEB0bHNwb29sLmFycGEyLmxhYjAP
BgNVHQ8BAf8EBQMDBwQAMB0GA1UdDgQWBBTXvFNgBHYHUZTjsr9biRKH3KLQUjAN
BgkqhkiG9w0BAQsFAAOB+wAmz5VPLHWCJsEMA/1AdoXctr+1QYqf3iSeJ8/9nYRE
57DYOqEftzp3JVZFVV7pPpFidbsx2Amur+NrKSqD1z6thdI4pdMxJVcCj136KWmC
tkXaJIJZeIWdu0H9l29WnvedB49KZsIA+Dryk0V/gYBBBmF7oAl35wq4yzDHGLuf
SF2bxIxNW+Tg50nZEQtab8F+Tk8SV0Titz/pkT4BEuwxLag6wwWICY710tUi7ahK
QWyV2V3xsuBFexC+NunZyCpBWOT7eZUjceT67IGjUbfU1pg4Fgxrs+tHbakySNXK
87sHgv/aFlEooVioEiHhxTHEK5qjrg3JnLzW
-----END CERTIFICATE-----
