X.509 Certificate Information:
	Version: 3
	Serial Number (hex): 01
	Issuer: CN=TLS Pool Test CA,OU=Testing Unit,O=ARPA2 Laboratories,L=Internet,ST=Freedom
	Validity:
		Not Before: Wed Apr 06 13:21:11 UTC 2016
		Not After: Wed Mar 07 13:21:11 UTC 2018
	Subject: CN=TLS Pool Test CA,OU=Testing Unit,O=ARPA2 Laboratories,L=Internet,ST=Freedom
	Subject Public Key Algorithm: RSA
	Algorithm Security Level: Legacy (2000 bits)
		Modulus (bits 2000):
			00:cc:5b:10:26:1b:dc:45:13:34:4d:fe:9d:cf:fa:77
			fe:02:fc:2b:22:4d:b3:5d:d7:c8:85:76:94:42:76:c0
			18:a2:11:03:f0:59:80:8b:7e:70:f1:5c:0c:69:99:88
			3b:85:7a:e1:a1:5b:1f:3c:c0:bd:91:92:91:82:05:74
			4a:e8:3c:8e:69:24:db:20:a8:38:00:2f:43:e1:ba:12
			e0:e7:d9:ae:be:b7:29:2f:e1:ef:b3:02:19:48:89:c9
			bc:0e:a8:61:45:4c:c9:fe:4a:2a:06:6e:3f:f5:12:76
			67:0d:cc:bb:8f:f9:fc:cd:df:39:5f:00:b5:13:ff:dc
			f6:c8:aa:91:06:85:1d:5f:5e:02:75:f3:93:f8:3b:99
			00:7d:58:c5:d2:67:e6:c2:e4:f0:5e:ea:e8:3f:b7:79
			a6:01:c4:7e:3c:84:89:24:5f:b5:55:0e:ce:66:f3:50
			7f:90:16:1b:17:21:42:f1:5b:95:e6:ba:29:2b:40:1a
			10:84:50:e4:04:c3:24:b2:13:8e:6f:89:f3:3d:81:60
			2c:c8:40:a6:4a:e0:e3:82:84:3b:7b:27:21:c7:ab:70
			5b:81:25:a6:2e:8d:61:67:44:af:8a:c2:2a:6b:5b:74
			18:94:0f:96:7c:87:7a:72:9f:fe:37
		Exponent (bits 24):
			01:00:01
	Extensions:
		Basic Constraints (critical):
			Certificate Authority (CA): TRUE
		Subject Alternative Name (not critical):
			RFC822Name: testca@@tlspool.arpa2.lab
		Key Purpose (not critical):
			OCSP signing.
		Key Usage (critical):
			Certificate signing.
			CRL signing.
		Subject Key Identifier (not critical):
			4b34049c9651d7827123d4aceafdd17289a479b1
	Signature Algorithm: RSA-SHA256
	Signature:
		84:8f:89:9f:23:2c:63:fb:92:a9:4e:32:b3:ce:3d:83
		34:f9:3f:99:f3:db:0e:fc:0a:49:3a:0b:3b:36:35:be
		ed:7f:5b:f7:50:a5:8b:2b:35:71:5b:b0:04:30:74:0a
		15:80:5d:62:10:f5:21:59:3c:0d:f9:a7:dd:57:5e:04
		a9:4b:8d:bc:05:da:de:6c:f8:72:d4:c8:5d:05:5b:b1
		a3:dd:df:d9:e1:ee:ca:ba:ba:aa:d6:dc:6f:4b:22:57
		10:b4:05:9e:fb:0e:fe:f2:91:a6:16:e5:52:0f:c4:ea
		8e:e2:7f:ff:43:3e:f5:15:09:ba:6a:b8:f8:f7:fb:53
		1d:d2:91:77:17:4d:0e:73:77:3a:8a:7f:74:32:6f:64
		a5:a3:ec:8a:ba:a8:d7:0c:b5:7a:8c:08:f2:4d:37:86
		4b:6f:ba:1e:31:52:63:5b:b4:db:68:d3:cd:82:9a:6a
		b0:11:40:6e:7e:95:5d:8d:9c:94:1c:a7:cb:c5:9f:71
		38:52:a7:9c:ec:6e:7d:3b:90:2e:62:de:1c:3a:fc:87
		11:30:97:5f:e2:76:d2:3d:76:a0:40:bb:fb:51:ca:66
		23:b1:96:4d:21:be:21:26:1a:71:3f:fa:bd:83:d7:eb
		e2:2a:7e:59:e3:07:54:f9:c7:13
Other Information:
	SHA1 fingerprint:
		f87ce1c779038df33a4df5807c765561da66d3e0
	SHA256 fingerprint:
		1ea5346b041034b590c4acbfa88d71805ac18bcdd642609246545188caf1eebb
	Public Key ID:
		4b34049c9651d7827123d4aceafdd17289a479b1
	Public key's random art:
		+--[ RSA 2000]----+
		|     .oB*=+.     |
		|      =..++..    |
		|     .  o. .     |
		|       ...       |
		|       .S o      |
		|      .. = = .   |
		|     . .+ E +    |
		|      . .. +     |
		|         ..      |
		+-----------------+

-----BEGIN CERTIFICATE-----
MIID0zCCAsKgAwIBAgIBATANBgkqhkiG9w0BAQsFADB0MRkwFwYDVQQDExBUTFMg
UG9vbCBUZXN0IENBMRUwEwYDVQQLEwxUZXN0aW5nIFVuaXQxGzAZBgNVBAoTEkFS
UEEyIExhYm9yYXRvcmllczERMA8GA1UEBxMISW50ZXJuZXQxEDAOBgNVBAgTB0Zy
ZWVkb20wHhcNMTYwNDA2MTMyMTExWhcNMTgwMzA3MTMyMTExWjB0MRkwFwYDVQQD
ExBUTFMgUG9vbCBUZXN0IENBMRUwEwYDVQQLEwxUZXN0aW5nIFVuaXQxGzAZBgNV
BAoTEkFSUEEyIExhYm9yYXRvcmllczERMA8GA1UEBxMISW50ZXJuZXQxEDAOBgNV
BAgTB0ZyZWVkb20wggEbMA0GCSqGSIb3DQEBAQUAA4IBCAAwggEDAoH7AMxbECYb
3EUTNE3+nc/6d/4C/CsiTbNd18iFdpRCdsAYohED8FmAi35w8VwMaZmIO4V64aFb
HzzAvZGSkYIFdEroPI5pJNsgqDgAL0PhuhLg59muvrcpL+HvswIZSInJvA6oYUVM
yf5KKgZuP/USdmcNzLuP+fzN3zlfALUT/9z2yKqRBoUdX14CdfOT+DuZAH1YxdJn
5sLk8F7q6D+3eaYBxH48hIkkX7VVDs5m81B/kBYbFyFC8VuV5ropK0AaEIRQ5ATD
JLITjm+J8z2BYCzIQKZK4OOChDt7JyHHq3BbgSWmLo1hZ0SvisIqa1t0GJQPlnyH
enKf/jcCAwEAAaN+MHwwDwYDVR0TAQH/BAUwAwEB/zAkBgNVHREEHTAbgRl0ZXN0
Y2FAQHRsc3Bvb2wuYXJwYTIubGFiMBMGA1UdJQQMMAoGCCsGAQUFBwMJMA8GA1Ud
DwEB/wQFAwMHBgAwHQYDVR0OBBYEFEs0BJyWUdeCcSPUrOr90XKJpHmxMA0GCSqG
SIb3DQEBCwUAA4H7AISPiZ8jLGP7kqlOMrPOPYM0+T+Z89sO/ApJOgs7NjW+7X9b
91Cliys1cVuwBDB0ChWAXWIQ9SFZPA35p91XXgSpS428BdrebPhy1MhdBVuxo93f
2eHuyrq6qtbcb0siVxC0BZ77Dv7ykaYW5VIPxOqO4n//Qz71FQm6arj49/tTHdKR
dxdNDnN3Oop/dDJvZKWj7Iq6qNcMtXqMCPJNN4ZLb7oeMVJjW7TbaNPNgppqsBFA
bn6VXY2clByny8WfcThSp5zsbn07kC5i3hw6/IcRMJdf4nbSPXagQLv7UcpmI7GW
TSG+ISYacT/6vYPX6+IqflnjB1T5xxM=
-----END CERTIFICATE-----
