X.509 Certificate Information:
	Version: 3
	Serial Number (hex): 01
	Issuer: CN=TLS Pool Test X.509 Server,OU=Test Servers,O=ARPA2 Laboratories,L=Internet,ST=Freedom
	Validity:
		Not Before: Wed Apr 06 13:21:11 UTC 2016
		Not After: Wed Jun 15 13:21:11 UTC 2016
	Subject: CN=TLS Pool Test X.509 Server,OU=Test Servers,O=ARPA2 Laboratories,L=Internet,ST=Freedom
	Subject Public Key Algorithm: RSA
	Algorithm Security Level: Legacy (2000 bits)
		Modulus (bits 2000):
			00:95:4b:84:13:1f:4f:76:27:e3:b0:37:3d:3f:62:81
			6e:a2:a1:b3:60:65:de:bd:33:37:8a:be:76:c7:c7:00
			8e:f7:13:4c:55:e8:ce:2e:b9:26:30:95:59:31:ee:ea
			72:59:4e:83:8b:fb:bd:65:27:70:98:99:bc:a1:68:76
			ab:df:50:5f:11:75:65:48:e2:4e:3c:ec:4c:11:b9:91
			41:63:73:ca:a0:b5:e5:56:03:dd:59:40:78:b9:e0:76
			c3:6d:f8:ca:bd:6f:4f:15:e6:aa:b1:be:60:0e:22:fe
			3b:64:39:55:4c:8a:c0:4e:dd:1c:47:64:84:7e:7f:bb
			57:ba:23:59:ff:f2:e8:ab:eb:e2:4e:13:6d:bb:eb:12
			74:4e:ad:60:ff:a5:5c:9e:d7:55:85:5d:fa:0e:26:77
			08:07:30:cf:b6:20:5c:66:06:18:5f:60:16:f1:93:8a
			cd:3f:70:0d:f4:e9:53:52:b8:cf:23:d9:d0:eb:19:04
			47:84:de:a5:27:6e:19:c5:cd:9e:f7:a1:9c:a1:24:c3
			54:1c:40:13:ce:5a:7c:75:cd:66:7a:1a:a1:b9:0c:62
			8f:73:0b:d9:ef:8d:e0:56:a7:1a:5d:73:8e:17:66:de
			67:c0:2a:95:fc:c8:3c:da:4c:ab:73
		Exponent (bits 24):
			01:00:01
	Extensions:
		Basic Constraints (critical):
			Certificate Authority (CA): FALSE
		Subject Alternative Name (not critical):
			RFC822Name: testsrv@tlspool.arpa2.lab
		Key Usage (critical):
			Digital signature.
			Key encipherment.
		Subject Key Identifier (not critical):
			39fccef7f27210422eaae526f17dc01ea1b8214e
	Signature Algorithm: RSA-SHA256
	Signature:
		85:9c:7f:32:cb:ed:a8:c2:fc:7b:9a:df:a7:49:1a:75
		62:3c:45:b5:ad:d4:18:5b:98:cf:64:23:58:3c:47:49
		2f:fb:86:9c:4b:08:c7:f2:01:55:d6:97:48:64:fc:62
		33:89:b8:b3:78:bd:23:d3:30:5b:ff:f5:26:7a:49:c0
		9c:ba:8b:6b:88:b4:eb:6c:c6:37:9b:71:6e:49:37:e0
		f3:41:8b:ef:11:c5:2c:86:3c:7e:c6:f9:cb:72:b3:fd
		e6:72:50:cd:11:8b:d3:8f:79:a5:a5:34:8d:59:11:7b
		0a:0f:8e:3f:59:50:86:b9:04:30:c6:21:18:5f:45:6f
		70:62:73:2a:df:01:75:b9:4d:84:96:55:50:f4:48:c8
		9e:39:53:bb:fb:94:55:3a:c3:e5:96:4b:c3:61:57:8c
		9b:d7:74:d9:3e:7b:8b:f6:ad:47:17:d6:29:59:a8:7b
		fb:cc:68:7a:a3:08:b3:ab:67:c7:9c:b1:a9:76:65:e3
		f7:95:f4:e8:bc:e9:50:12:fa:af:3f:3f:6b:b8:1e:2b
		b3:0f:6a:6e:a3:1d:4d:22:78:17:bd:9a:a1:cf:b8:4e
		8b:b4:e2:6d:9d:03:ae:df:35:76:78:07:f0:01:d2:d5
		18:1c:83:5f:18:0f:84:b6:d7:48
Other Information:
	SHA1 fingerprint:
		a8f7639298839cd33438fa67a586cbcf19b56fe8
	SHA256 fingerprint:
		d9d64c6d50af9eed61c74f729df8b0ffbd486a3887c7c6a79e1d4791b2b366a4
	Public Key ID:
		39fccef7f27210422eaae526f17dc01ea1b8214e
	Public key's random art:
		+--[ RSA 2000]----+
		|                 |
		|          .      |
		|         o       |
		|       .o.o .    |
		|     . +So . .   |
		|  E + + +o  .    |
		| o . O o o.  .   |
		|  . + + oo. + .  |
		|     o   .o. *o  |
		+-----------------+

-----BEGIN CERTIFICATE-----
MIIDzzCCAr6gAwIBAgIBATANBgkqhkiG9w0BAQsFADB+MSMwIQYDVQQDExpUTFMg
UG9vbCBUZXN0IFguNTA5IFNlcnZlcjEVMBMGA1UECxMMVGVzdCBTZXJ2ZXJzMRsw
GQYDVQQKExJBUlBBMiBMYWJvcmF0b3JpZXMxETAPBgNVBAcTCEludGVybmV0MRAw
DgYDVQQIEwdGcmVlZG9tMB4XDTE2MDQwNjEzMjExMVoXDTE2MDYxNTEzMjExMVow
fjEjMCEGA1UEAxMaVExTIFBvb2wgVGVzdCBYLjUwOSBTZXJ2ZXIxFTATBgNVBAsT
DFRlc3QgU2VydmVyczEbMBkGA1UEChMSQVJQQTIgTGFib3JhdG9yaWVzMREwDwYD
VQQHEwhJbnRlcm5ldDEQMA4GA1UECBMHRnJlZWRvbTCCARswDQYJKoZIhvcNAQEB
BQADggEIADCCAQMCgfsAlUuEEx9PdifjsDc9P2KBbqKhs2Bl3r0zN4q+dsfHAI73
E0xV6M4uuSYwlVkx7upyWU6Di/u9ZSdwmJm8oWh2q99QXxF1ZUjiTjzsTBG5kUFj
c8qgteVWA91ZQHi54HbDbfjKvW9PFeaqsb5gDiL+O2Q5VUyKwE7dHEdkhH5/u1e6
I1n/8uir6+JOE2276xJ0Tq1g/6VcntdVhV36DiZ3CAcwz7YgXGYGGF9gFvGTis0/
cA306VNSuM8j2dDrGQRHhN6lJ24Zxc2e96GcoSTDVBxAE85afHXNZnoaobkMYo9z
C9nvjeBWpxpdc44XZt5nwCqV/Mg82kyrcwIDAQABo2YwZDAMBgNVHRMBAf8EAjAA
MCQGA1UdEQQdMBuBGXRlc3RzcnZAdGxzcG9vbC5hcnBhMi5sYWIwDwYDVR0PAQH/
BAUDAwegADAdBgNVHQ4EFgQUOfzO9/JyEEIuquUm8X3AHqG4IU4wDQYJKoZIhvcN
AQELBQADgfsAhZx/MsvtqML8e5rfp0kadWI8RbWt1BhbmM9kI1g8R0kv+4acSwjH
8gFV1pdIZPxiM4m4s3i9I9MwW//1JnpJwJy6i2uItOtsxjebcW5JN+DzQYvvEcUs
hjx+xvnLcrP95nJQzRGL0495paU0jVkRewoPjj9ZUIa5BDDGIRhfRW9wYnMq3wF1
uU2EllVQ9EjInjlTu/uUVTrD5ZZLw2FXjJvXdNk+e4v2rUcX1ilZqHv7zGh6owiz
q2fHnLGpdmXj95X06LzpUBL6rz8/a7geK7MPam6jHU0ieBe9mqHPuE6LtOJtnQOu
3zV2eAfwAdLVGByDXxgPhLbXSA==
-----END CERTIFICATE-----
